target datalayout = "e-m:e-p270:32:32-p271:32:32-p272:64:64-i64:64-i128:128-f80:128-n8:16:32:64-S128"
target triple = "x86_64-pc-linux-gnu"

%"struct.duckdb_lz4::LZ4_stream_t_internal" = type { [4096 x i32], ptr, ptr, i32, i32, i32 }
%"union.duckdb_lz4::LZ4_stream_u" = type { %"struct.duckdb_lz4::LZ4_stream_t_internal" }

; Function Attrs: mustprogress nounwind uwtable
define internal noundef i32 @_ZN10duckdb_lz4L13LZ4_isAlignedEPKvm(ptr noundef %0, i64 noundef %1) #0 {
  %3 = alloca ptr, align 8
  %4 = alloca i64, align 8
  store ptr %0, ptr %3, align 8, !tbaa !7
  store i64 %1, ptr %4, align 8, !tbaa !15
  %5 = load ptr, ptr %3, align 8, !tbaa !7
  %6 = ptrtoint ptr %5 to i64
  %7 = load i64, ptr %4, align 8, !tbaa !15
  %8 = sub i64 %7, 1
  %9 = and i64 %6, %8
  %10 = icmp eq i64 %9, 0
  %11 = zext i1 %10 to i32
  ret i32 %11
}

; Function Attrs: mustprogress nounwind uwtable
define internal noundef i64 @_ZN10duckdb_lz4L22LZ4_stream_t_alignmentEv() #0 {
  ret i64 8
}

; Function Attrs: mustprogress nounwind uwtable
define noundef i32 @_ZN10duckdb_lz417LZ4_compressBoundEi(i32 noundef %0) #0 {
  %2 = alloca i32, align 4
  store i32 %0, ptr %2, align 4, !tbaa !3
  %3 = load i32, ptr %2, align 4, !tbaa !3
  %4 = icmp ugt i32 %3, 2113929216
  br i1 %4, label %5, label %6

5:                                                ; preds = %1
  br label %12

6:                                                ; preds = %1
  %7 = load i32, ptr %2, align 4, !tbaa !3
  %8 = load i32, ptr %2, align 4, !tbaa !3
  %9 = sdiv i32 %8, 255
  %10 = add nsw i32 %7, %9
  %11 = add nsw i32 %10, 16
  br label %12

12:                                               ; preds = %6, %5
  %13 = phi i32 [ 0, %5 ], [ %11, %6 ]
  ret i32 %13
}

; Function Attrs: mustprogress uwtable
define noundef ptr @_ZN10duckdb_lz414LZ4_initStreamEPvm(ptr noundef %0, i64 noundef %1) #1 {
  %3 = alloca ptr, align 8
  %4 = alloca ptr, align 8
  %5 = alloca i64, align 8
  store ptr %0, ptr %4, align 8, !tbaa !7
  store i64 %1, ptr %5, align 8, !tbaa !15
  %6 = load ptr, ptr %4, align 8, !tbaa !7
  %7 = icmp eq ptr %6, null
  br i1 %7, label %8, label %9

8:                                                ; preds = %2
  store ptr null, ptr %3, align 8
  br label %22

9:                                                ; preds = %2
  %10 = load i64, ptr %5, align 8, !tbaa !15
  %11 = icmp ult i64 %10, 16416
  br i1 %11, label %12, label %13

12:                                               ; preds = %9
  store ptr null, ptr %3, align 8
  br label %22

13:                                               ; preds = %9
  %14 = load ptr, ptr %4, align 8, !tbaa !7
  %15 = call noundef i64 @_ZN10duckdb_lz4L22LZ4_stream_t_alignmentEv()
  %16 = call noundef i32 @_ZN10duckdb_lz4L13LZ4_isAlignedEPKvm(ptr noundef %14, i64 noundef %15)
  %17 = icmp ne i32 %16, 0
  br i1 %17, label %19, label %18

18:                                               ; preds = %13
  store ptr null, ptr %3, align 8
  br label %22

19:                                               ; preds = %13
  %20 = load ptr, ptr %4, align 8, !tbaa !7
  call void @llvm.memset.p0.i64(ptr align 1 %20, i8 0, i64 16416, i1 false)
  %21 = load ptr, ptr %4, align 8, !tbaa !7
  store ptr %21, ptr %3, align 8
  br label %22

22:                                               ; preds = %19, %18, %12, %8
  %23 = load ptr, ptr %3, align 8
  ret ptr %23
}

; Function Attrs: mustprogress uwtable
define internal noundef i32 @_ZN10duckdb_lz4L30LZ4_compress_destSize_extStateEPNS_12LZ4_stream_uEPKcPcPii(ptr noundef %0, ptr noundef %1, ptr noundef %2, ptr noundef %3, i32 noundef %4) #1 {
  %6 = alloca i32, align 4
  %7 = alloca ptr, align 8
  %8 = alloca ptr, align 8
  %9 = alloca ptr, align 8
  %10 = alloca ptr, align 8
  %11 = alloca i32, align 4
  %12 = alloca ptr, align 8
  %13 = alloca i32, align 4
  %14 = alloca i32, align 4
  store ptr %0, ptr %7, align 8, !tbaa !32
  store ptr %1, ptr %8, align 8, !tbaa !9
  store ptr %2, ptr %9, align 8, !tbaa !9
  store ptr %3, ptr %10, align 8, !tbaa !17
  store i32 %4, ptr %11, align 4, !tbaa !3
  call void @llvm.lifetime.start.p0(i64 8, ptr %12) #9
  %15 = load ptr, ptr %7, align 8, !tbaa !32
  %16 = call noundef ptr @_ZN10duckdb_lz414LZ4_initStreamEPvm(ptr noundef %15, i64 noundef 16416)
  store ptr %16, ptr %12, align 8, !tbaa !7
  %17 = load i32, ptr %11, align 4, !tbaa !3
  %18 = load ptr, ptr %10, align 8, !tbaa !17
  %19 = load i32, ptr %18, align 4, !tbaa !3
  %20 = call noundef i32 @_ZN10duckdb_lz417LZ4_compressBoundEi(i32 noundef %19)
  %21 = icmp sge i32 %17, %20
  br i1 %21, label %22, label %30

22:                                               ; preds = %5
  %23 = load ptr, ptr %7, align 8, !tbaa !32
  %24 = load ptr, ptr %8, align 8, !tbaa !9
  %25 = load ptr, ptr %9, align 8, !tbaa !9
  %26 = load ptr, ptr %10, align 8, !tbaa !17
  %27 = load i32, ptr %26, align 4, !tbaa !3
  %28 = load i32, ptr %11, align 4, !tbaa !3
  %29 = call noundef i32 @_ZN10duckdb_lz426LZ4_compress_fast_extStateEPvPKcPciii(ptr noundef %23, ptr noundef %24, ptr noundef %25, i32 noundef %27, i32 noundef %28, i32 noundef 1)
  store i32 %29, ptr %6, align 4
  store i32 1, ptr %13, align 4
  br label %52

30:                                               ; preds = %5
  %31 = load ptr, ptr %10, align 8, !tbaa !17
  %32 = load i32, ptr %31, align 4, !tbaa !3
  %33 = icmp slt i32 %32, 65547
  br i1 %33, label %34, label %43

34:                                               ; preds = %30
  %35 = load ptr, ptr %7, align 8, !tbaa !32
  %36 = load ptr, ptr %8, align 8, !tbaa !9
  %37 = load ptr, ptr %9, align 8, !tbaa !9
  %38 = load ptr, ptr %10, align 8, !tbaa !17
  %39 = load i32, ptr %38, align 4, !tbaa !3
  %40 = load ptr, ptr %10, align 8, !tbaa !17
  %41 = load i32, ptr %11, align 4, !tbaa !3
  %42 = call noundef i32 @_ZN10duckdb_lz4L20LZ4_compress_genericEPNS_21LZ4_stream_t_internalEPKcPciPiiNS_23limitedOutput_directiveENS_11tableType_tENS_14dict_directiveENS_19dictIssue_directiveEi(ptr noundef %35, ptr noundef %36, ptr noundef %37, i32 noundef %39, ptr noundef %40, i32 noundef %41, i32 noundef 2, i32 noundef 3, i32 noundef 0, i32 noundef 0, i32 noundef 1)
  store i32 %42, ptr %6, align 4
  store i32 1, ptr %13, align 4
  br label %52

43:                                               ; preds = %30
  call void @llvm.lifetime.start.p0(i64 4, ptr %14) #9
  store i32 2, ptr %14, align 4, !tbaa !13
  %44 = load ptr, ptr %7, align 8, !tbaa !32
  %45 = load ptr, ptr %8, align 8, !tbaa !9
  %46 = load ptr, ptr %9, align 8, !tbaa !9
  %47 = load ptr, ptr %10, align 8, !tbaa !17
  %48 = load i32, ptr %47, align 4, !tbaa !3
  %49 = load ptr, ptr %10, align 8, !tbaa !17
  %50 = load i32, ptr %11, align 4, !tbaa !3
  %51 = call noundef i32 @_ZN10duckdb_lz4L20LZ4_compress_genericEPNS_21LZ4_stream_t_internalEPKcPciPiiNS_23limitedOutput_directiveENS_11tableType_tENS_14dict_directiveENS_19dictIssue_directiveEi(ptr noundef %44, ptr noundef %45, ptr noundef %46, i32 noundef %48, ptr noundef %49, i32 noundef %50, i32 noundef 2, i32 noundef 2, i32 noundef 0, i32 noundef 0, i32 noundef 1)
  store i32 %51, ptr %6, align 4
  store i32 1, ptr %13, align 4
  call void @llvm.lifetime.end.p0(i64 4, ptr %14) #9
  br label %52

52:                                               ; preds = %43, %34, %22
  call void @llvm.lifetime.end.p0(i64 8, ptr %12) #9
  %53 = load i32, ptr %6, align 4
  ret i32 %53
}

; Function Attrs: mustprogress uwtable
define noundef i32 @_ZN10duckdb_lz421LZ4_compress_destSizeEPKcPcPii(ptr noundef %0, ptr noundef %1, ptr noundef %2, i32 noundef %3) #1 {
  %5 = alloca ptr, align 8
  %6 = alloca ptr, align 8
  %7 = alloca ptr, align 8
  %8 = alloca i32, align 4
  %9 = alloca %"union.duckdb_lz4::LZ4_stream_u", align 8
  %10 = alloca ptr, align 8
  %11 = alloca i32, align 4
  store ptr %0, ptr %5, align 8, !tbaa !9
  store ptr %1, ptr %6, align 8, !tbaa !9
  store ptr %2, ptr %7, align 8, !tbaa !17
  store i32 %3, ptr %8, align 4, !tbaa !3
  call void @llvm.lifetime.start.p0(i64 16416, ptr %9) #9
  call void @llvm.lifetime.start.p0(i64 8, ptr %10) #9
  store ptr %9, ptr %10, align 8, !tbaa !32
  call void @llvm.lifetime.start.p0(i64 4, ptr %11) #9
  %12 = load ptr, ptr %10, align 8, !tbaa !32
  %13 = load ptr, ptr %5, align 8, !tbaa !9
  %14 = load ptr, ptr %6, align 8, !tbaa !9
  %15 = load ptr, ptr %7, align 8, !tbaa !17
  %16 = load i32, ptr %8, align 4, !tbaa !3
  %17 = call noundef i32 @_ZN10duckdb_lz4L30LZ4_compress_destSize_extStateEPNS_12LZ4_stream_uEPKcPcPii(ptr noundef %12, ptr noundef %13, ptr noundef %14, ptr noundef %15, i32 noundef %16)
  store i32 %17, ptr %11, align 4, !tbaa !3
  %18 = load i32, ptr %11, align 4, !tbaa !3
  call void @llvm.lifetime.end.p0(i64 4, ptr %11) #9
  call void @llvm.lifetime.end.p0(i64 8, ptr %10) #9
  call void @llvm.lifetime.end.p0(i64 16416, ptr %9) #9
  ret i32 %18
}