; Function Attrs: mustprogress nofree norecurse nosync nounwind memory(readwrite, inaccessiblemem: none) uwtable
define noundef i32 @_ZN10duckdb_lz421LZ4_compress_destSizeEPKcPcPii(ptr noundef %0, ptr noundef %1, ptr noundef captures(none) %2, i32 noundef %3) local_unnamed_addr #1 {
_ZN10duckdb_lz414LZ4_initStreamEPvm.exit.i:
  %4 = alloca %"union.duckdb_lz4::LZ4_stream_u", align 8
  call void @llvm.lifetime.start.p0(i64 16416, ptr nonnull %4) #18
  call void @llvm.memset.p0.i64(ptr noundef nonnull align 8 dereferenceable(16416) %4, i8 0, i64 16416, i1 false)
  %5 = load i32, ptr %2, align 4, !tbaa !6
  %6 = icmp ugt i32 %5, 2113929216
  br i1 %6, label %_ZN10duckdb_lz417LZ4_compressBoundEi.exit.i, label %7

7:                                                ; preds = %_ZN10duckdb_lz414LZ4_initStreamEPvm.exit.i
  %8 = udiv i32 %5, 255
  %9 = add nuw nsw i32 %5, 16
  %10 = add nuw nsw i32 %9, %8
  br label %_ZN10duckdb_lz417LZ4_compressBoundEi.exit.i

_ZN10duckdb_lz417LZ4_compressBoundEi.exit.i:      ; preds = %7, %_ZN10duckdb_lz414LZ4_initStreamEPvm.exit.i
  %11 = phi i32 [ %10, %7 ], [ 0, %_ZN10duckdb_lz414LZ4_initStreamEPvm.exit.i ]
  %.not.i = icmp slt i32 %3, %11
  br i1 %.not.i, label %14, label %12

12:                                               ; preds = %_ZN10duckdb_lz417LZ4_compressBoundEi.exit.i
  %13 = call noundef i32 @_ZN10duckdb_lz426LZ4_compress_fast_extStateEPvPKcPciii(ptr noundef nonnull %4, ptr noundef %0, ptr noundef %1, i32 noundef %5, i32 noundef %3, i32 noundef 1)
  br label %_ZN10duckdb_lz4L30LZ4_compress_destSize_extStateEPNS_12LZ4_stream_uEPKcPcPii.exit

14:                                               ; preds = %_ZN10duckdb_lz417LZ4_compressBoundEi.exit.i
  %15 = icmp slt i32 %5, 65547
  br i1 %15, label %16, label %18

16:                                               ; preds = %14
  %17 = call fastcc noundef i32 @_ZN10duckdb_lz4L20LZ4_compress_genericEPNS_21LZ4_stream_t_internalEPKcPciPiiNS_23limitedOutput_directiveENS_11tableType_tENS_14dict_directiveENS_19dictIssue_directiveEi(ptr noundef nonnull %4, ptr noundef %0, ptr noundef %1, i32 noundef %5, ptr noundef nonnull %2, i32 noundef %3, i32 noundef 2, i32 noundef 3, i32 noundef 0, i32 noundef 0, i32 noundef 1)
  br label %_ZN10duckdb_lz4L30LZ4_compress_destSize_extStateEPNS_12LZ4_stream_uEPKcPcPii.exit

18:                                               ; preds = %14
  %19 = call fastcc noundef i32 @_ZN10duckdb_lz4L20LZ4_compress_genericEPNS_21LZ4_stream_t_internalEPKcPciPiiNS_23limitedOutput_directiveENS_11tableType_tENS_14dict_directiveENS_19dictIssue_directiveEi(ptr noundef nonnull %4, ptr noundef %0, ptr noundef %1, i32 noundef %5, ptr noundef nonnull %2, i32 noundef %3, i32 noundef 2, i32 noundef 2, i32 noundef 0, i32 noundef 0, i32 noundef 1)
  br label %_ZN10duckdb_lz4L30LZ4_compress_destSize_extStateEPNS_12LZ4_stream_uEPKcPcPii.exit

_ZN10duckdb_lz4L30LZ4_compress_destSize_extStateEPNS_12LZ4_stream_uEPKcPcPii.exit: ; preds = %12, %16, %18
  %.0.i = phi i32 [ %13, %12 ], [ %17, %16 ], [ %19, %18 ]
  call void @llvm.lifetime.end.p0(i64 16416, ptr nonnull %4) #18
  ret i32 %.0.i
}